
Merging object attributes


Merging program properties

Removed property 0xc0010001 to merge interrupts.o (0x1) and kernel_entry.o (not found)
Removed property 0xc0010002 to merge interrupts.o (0x0) and kernel_entry.o (not found)
Removed property 0xc0010001 to merge interrupts.o (not found) and paging.o (0x1)
Removed property 0xc0010002 to merge interrupts.o (not found) and paging.o (0x1)
Removed property 0xc0010001 to merge interrupts.o (not found) and process.o (0x1)
Removed property 0xc0010002 to merge interrupts.o (not found) and process.o (0x1)
Removed property 0xc0010001 to merge interrupts.o (not found) and syscall.o (0x1)
Removed property 0xc0010002 to merge interrupts.o (not found) and syscall.o (0x0)
Removed property 0xc0010001 to merge interrupts.o (not found) and sync.o (0x1)
Removed property 0xc0010002 to merge interrupts.o (not found) and sync.o (0x0)
Removed property 0xc0010001 to merge interrupts.o (not found) and log.o (0x1)
Removed property 0xc0010002 to merge interrupts.o (not found) and log.o (0x0)
Removed property 0xc0010001 to merge interrupts.o (not found) and driver.o (0x1)
Removed property 0xc0010002 to merge interrupts.o (not found) and driver.o (0x0)
Removed property 0xc0010001 to merge interrupts.o (not found) and pipe.o (0x1)
Removed property 0xc0010002 to merge interrupts.o (not found) and pipe.o (0x0)
Removed property 0xc0010001 to merge interrupts.o (not found) and vfs.o (0x1)
Removed property 0xc0010002 to merge interrupts.o (not found) and vfs.o (0x0)
Removed property 0xc0010001 to merge interrupts.o (not found) and elf.o (0x1)
Removed property 0xc0010002 to merge interrupts.o (not found) and elf.o (0x0)
Removed property 0xc0010001 to merge interrupts.o (not found) and hexafs_disk.o (0x1)
Removed property 0xc0010002 to merge interrupts.o (not found) and hexafs_disk.o (0x1)
Removed property 0xc0010001 to merge interrupts.o (not found) and hexafs.o (0x1)
Removed property 0xc0010002 to merge interrupts.o (not found) and hexafs.o (0x0)
Removed property 0xc0010001 to merge interrupts.o (not found) and kobserve.o (0x1)
Removed property 0xc0010002 to merge interrupts.o (not found) and kobserve.o (0x0)
Removed property 0xc0010001 to merge interrupts.o (not found) and boot_policy.o (0x1)
Removed property 0xc0010002 to merge interrupts.o (not found) and boot_policy.o (0x0)
Removed property 0xc0010001 to merge interrupts.o (not found) and intent.o (0x1)
Removed property 0xc0010002 to merge interrupts.o (not found) and intent.o (0x1)
Removed property 0xc0010001 to merge interrupts.o (not found) and replay.o (0x1)
Removed property 0xc0010002 to merge interrupts.o (not found) and replay.o (0x0)
Removed property 0xc0010001 to merge interrupts.o (not found) and hex.o (0x1)
Removed property 0xc0010002 to merge interrupts.o (not found) and hex.o (0x0)
Removed property 0xc0010001 to merge interrupts.o (not found) and net.o (0x1)
Removed property 0xc0010002 to merge interrupts.o (not found) and net.o (0x0)
Removed property 0xc0010001 to merge interrupts.o (not found) and fb.o (0x1)
Removed property 0xc0010002 to merge interrupts.o (not found) and fb.o (0x0)
Removed property 0xc0010001 to merge interrupts.o (not found) and hexa.o (0x1)
Removed property 0xc0010002 to merge interrupts.o (not found) and hexa.o (0x1)

Discarded input sections

 .note.gnu.property
                0x00000000       0x28 interrupts.o
 .note.gnu.property
                0x00000000       0x28 paging.o
 .note.gnu.property
                0x00000000       0x28 process.o
 .note.gnu.property
                0x00000000       0x28 syscall.o
 .note.gnu.property
                0x00000000       0x28 sync.o
 .note.gnu.property
                0x00000000       0x28 log.o
 .note.gnu.property
                0x00000000       0x28 driver.o
 .note.gnu.property
                0x00000000       0x28 pipe.o
 .note.gnu.property
                0x00000000       0x28 vfs.o
 .note.gnu.property
                0x00000000       0x28 elf.o
 .note.gnu.property
                0x00000000       0x28 hexafs_disk.o
 .note.gnu.property
                0x00000000       0x28 hexafs.o
 .note.gnu.property
                0x00000000       0x28 kobserve.o
 .note.gnu.property
                0x00000000       0x28 boot_policy.o
 .note.gnu.property
                0x00000000       0x28 intent.o
 .note.gnu.property
                0x00000000       0x28 replay.o
 .note.gnu.property
                0x00000000       0x28 hex.o
 .note.gnu.property
                0x00000000       0x28 net.o
 .note.gnu.property
                0x00000000       0x28 fb.o
 .note.gnu.property
                0x00000000       0x28 hexa.o

Memory Configuration

Name             Origin             Length             Attributes
*default*        0x00000000         0xffffffff

Linker script and memory map

                0x00010000                        . = 0x10000

.text           0x00010000    0x1901a
 *(.text.entry)
 .text.entry    0x00010000      0x781 hexa.o
                0x00010000                kernel_entry
                0x00010000                kernel_main
 *(.text)
 *fill*         0x00010781        0xf 
 .text          0x00010790      0x1dd kernel_entry.o
                0x00010790                isr0
                0x00010799                isr1
                0x000107a2                isr2
                0x000107ab                isr3
                0x000107b4                isr4
                0x000107bd                isr5
                0x000107c6                isr6
                0x000107cf                isr7
                0x000107d8                isr8
                0x000107dc                isr9
                0x000107e2                isr10
                0x000107e6                isr11
                0x000107ea                isr12
                0x000107ee                isr13
                0x000107f2                isr14
                0x000107f6                isr15
                0x000107fc                isr16
                0x00010802                isr17
                0x00010806                isr18
                0x0001080c                isr19
                0x00010812                isr20
                0x00010818                isr21
                0x0001081e                isr22
                0x00010824                isr23
                0x0001082a                isr24
                0x00010830                isr25
                0x00010836                isr26
                0x0001083c                isr27
                0x00010842                isr28
                0x00010848                isr29
                0x0001084e                isr30
                0x00010852                isr31
                0x00010880                irq0
                0x00010886                irq1
                0x0001088c                irq2
                0x00010892                irq3
                0x00010898                irq4
                0x0001089e                irq5
                0x000108a4                irq6
                0x000108aa                irq7
                0x000108b0                irq8
                0x000108b6                irq9
                0x000108bc                irq10
                0x000108c2                irq11
                0x000108c8                irq12
                0x000108ce                irq13
                0x000108d4                irq14
                0x000108da                irq15
                0x00010908                syscall_stub
                0x0001093a                tss_flush
                0x00010942                switch_task
                0x0001094f                enter_userspace
 .text          0x0001096d      0xb59 interrupts.o
                0x000109a7                idt_set_gate
                0x000109fb                pic_remap
                0x00010a9d                pit_init
                0x00010af9                idt_init
                0x00010feb                setup_gdt
                0x000110ea                setup_tss
                0x0001113d                put_hex32
                0x000111ac                isr_handler
                0x00011326                irq_handler
                0x00011468                kb_getchar
 .text          0x000114c6      0x954 paging.o
                0x000114c6                pmm_get_total_pages
                0x0001155a                pmm_init
                0x00011630                pmm_alloc
                0x000116c6                pmm_free
                0x000116ff                pmm_count_free
                0x0001173b                paging_init
                0x00011820                get_kernel_page_dir
                0x0001182a                create_user_page_dir
                0x000118a4                switch_page_dir
                0x000118b6                map_page
                0x00011994                unmap_page
                0x00011a0e                page_fault_handler
                0x00011b7f                kheap_init
                0x00011c08                kmalloc
                0x00011cd4                kfree
                0x00011d8d                krealloc
 .text          0x00011e1a     0x117f process.o
                0x00011e88                proc_init
                0x0001214e                proc_create
                0x00012387                proc_create_user
                0x000125dc                proc_exit
                0x00012736                proc_wait
                0x000127d9                proc_kill
                0x00012891                proc_reap_zombies
                0x000128d7                proc_get_fd_entry
                0x00012975                proc_alloc_fd
                0x00012a89                proc_free_fd
                0x00012b0e                schedule
                0x00012cda                yield
                0x00012ce2                process_event_send
                0x00012e40                process_event_poll
 .text          0x00012f99      0xb42 syscall.o
                0x00012f99                sys_validate_str
                0x00012fde                sys_validate_buf
                0x00013564                syscall_handler
 .text          0x00013adb       0xf9 sync.o
                0x00013ae9                mutex_init
                0x00013b02                mutex_lock
                0x00013b24                mutex_trylock
                0x00013b3b                mutex_unlock
                0x00013b55                sem_init
                0x00013b6d                sem_wait
                0x00013bad                sem_signal
 .text          0x00013bd4      0x392 log.o
                0x00013c82                log_init
                0x00013cbb                log_write
                0x00013de9                log_write_hex
                0x00013ea1                log_dump
                0x00013eed                log_get
                0x00013f5c                log_get_count
 .text          0x00013f66      0x16d driver.o
                0x00013f66                drv_register_block
                0x00013ff6                drv_register_char
                0x0001406a                drv_get_block
                0x00014098                drv_get_char
                0x000140bf                drv_block_count
                0x000140c9                drv_char_count
 .text          0x000140d3      0x830 pipe.o
                0x000140e1                pipe_create
                0x000141d7                pipe_read
                0x000142a4                pipe_write
                0x0001436f                pipe_close
                0x00014402                pipe_create_typed
                0x000144c5                pipe_typed_write
                0x000145e8                pipe_typed_read
                0x000146e6                pipe_typed_list
 .text          0x00014903      0x893 vfs.o
                0x000149a7                vfs_init
                0x000149df                vfs_open
                0x00014afa                vfs_close
                0x00014b47                vfs_read
                0x00014d11                vfs_write
                0x00014f36                vfs_lseek
                0x0001501f                vfs_stat
                0x00015101                vfs_dup
 .text          0x00015196      0x1b1 elf.o
                0x00015196                elf_validate
                0x000151ed                elf_load
 .text          0x00015347     0x1879 hexafs_disk.o
                0x00015726                hexafs_content_hash
                0x00015774                hexafs_block_read
                0x0001578d                hexafs_block_write
                0x000157a6                hexafs_block_verify
                0x00015821                hexafs_alloc_block
                0x0001592c                hexafs_free_block
                0x000159d1                hexafs_save_bitmap
                0x00015b24                hexafs_write_superblock
                0x00015c0b                hexafs_read_superblock
                0x00015cc2                hexafs_format
                0x00015da5                hexafs_mount_disk
                0x00015e29                hexafs_object_alloc
                0x00015ed2                hexafs_object_write_data
                0x00016041                hexafs_object_read_data
                0x00016142                hexafs_snap_create
                0x00016271                hexafs_snap_find
                0x00016348                hexafs_get_timestamp
                0x00016399                hexafs_abstraction_create
                0x0001652c                hexafs_abstraction_add_entry
                0x0001679d                hexafs_abstraction_find
                0x000168d3                hexafs_abstraction_remove_entry
                0x00016ab5                hexafs_abstraction_list
                0x00016b95                hexafs_cache_flush_all
 .text          0x00016bc0     0x167a hexafs.o
                0x00016bc0                hexafs_tx_begin
                0x00016c26                hexafs_tx_commit
                0x00016cbd                hexafs_tx_abort
                0x00016cf6                hexafs_mount
                0x00016db8                hexafs_format_fs
                0x00016eed                hexafs_save_all
                0x00016fcd                hexafs_load_all
                0x0001741f                pimp_load_rules
                0x0001755c                pimp_save_rules
                0x000176ce                pimp_check
                0x00017744                pimp_rule_add
                0x00017836                pimp_rule_remove
                0x0001790a                pimp_rule_list
                0x00017b45                hexafs_users_save
                0x00017caa                hexafs_users_load
                0x00017d88                hexafs_cap_grant
                0x00017e78                hexafs_snap_for_pid
                0x00017e82                hexafs_set_pid_snap
                0x00017e90                hexafs_cap_check
                0x00017fb9                hexafs_cap_revoke
                0x00017fc3                hexafs_cap_list_pid
 .text          0x0001823a     0x1292 kobserve.o
                0x000182c0                kobserve_register
                0x0001837f                kobserve_query
                0x000183d8                kobserve_read_kernel_path
                0x000183f3                kobserve_sched_tasks
                0x000186c6                kobserve_sched_history
                0x0001872f                kobserve_mem_pages
                0x00018a54                kobserve_mem_heap
                0x00018abd                kobserve_intr_log
                0x00018b89                kobserve_intr_stats
                0x00018cfa                kobserve_vfs_mounts
                0x00018daf                kobserve_open_intents
                0x00018ea8                kobserve_caps_grants
                0x00018f5d                kobserve_caps_revoked
                0x00019012                kobserve_pipes_active
                0x0001910b                kobserve_snapshots_tree
                0x000192fc                kobserve_replay_last
                0x00019365                kobserve_init
 .text          0x000194cc      0x532 boot_policy.o
                0x00019549                boot_policy_init
                0x0001973b                boot_policy_read
                0x0001977c                boot_policy_write
                0x00019796                boot_policy_run_stage
                0x000198a9                boot_policy_execute
                0x00019976                boot_policy_set_fallback
                0x000199c0                boot_policy_get_failure_count
                0x000199ca                boot_policy_get_stage_count
                0x000199d4                boot_policy_get_stage_name
 .text          0x000199fe      0xba7 intent.o
                0x000199fe                intent_init
                0x00019a3e                intent_create
                0x00019ba5                intent_fulfill
                0x00019f4f                intent_close
                0x00019fbf                intent_compat_open
                0x0001a099                intent_compat_read
                0x0001a142                intent_compat_write
                0x0001a266                intent_compat_stat
                0x0001a351                intent_table_active_count
                0x0001a392                intent_list_active
 .text          0x0001a5a5      0x442 replay.o
                0x0001a5a5                replay_init
                0x0001a5f9                replay_record
                0x0001a794                replay_save_log
                0x0001a7a2                replay_execute
                0x0001a964                replay_dry_run
                0x0001a9c3                replay_get_count
                0x0001a9cd                replay_get_errors
 .text          0x0001a9e7      0x67a hex.o
                0x0001a9e7                hex_validate
                0x0001aa6d                hex_load
                0x0001abdf                hex_pack_elf
 .text          0x0001b061      0xc05 net.o
                0x0001b061                net_init
                0x0001b19d                net_interface_add
                0x0001b245                net_interface_list
                0x0001b58c                net_connection_open
                0x0001b644                net_connection_close
                0x0001b676                net_connection_list
                0x0001b9a5                net_loopback_send
                0x0001ba3c                net_loopback_recv
                0x0001baa7                net_history_list
                0x0001bc04                net_register_observers
                0x0001bc52                net_get_interface_count
                0x0001bc5c                net_get_connection_count
 .text          0x0001bc66      0x4a4 fb.o
                0x0001bcdc                fb_init
                0x0001bd79                fb_set_mode
                0x0001be5f                fb_clear
                0x0001beca                fb_put_pixel
                0x0001bf5b                fb_put_rect
                0x0001c019                fb_double_buf
                0x0001c0b7                fb_swap
                0x0001c0fb                fb_available
 .text          0x0001c10a     0xcf10 hexa.o
                0x0001c188                form_ensure_cap
                0x0001c253                strcmp
                0x0001c292                strcpy
                0x0001c2c2                strlen
                0x0001c2e9                memset
                0x0001c317                memcpy
                0x0001c354                strcat
                0x0001c394                memcmp
                0x0001c3fe                atoi
                0x0001c48e                itoa
                0x0001c945                get_update_in_progress_flag
                0x0001c968                get_rtc_register
                0x0001c988                pci_config_read_word
                0x0001cd9e                update_cursor
                0x0001ce61                put_char
                0x0001d02f                print_string
                0x0001d063                print_color
                0x0001d093                clear_screen
                0x0001d111                get_char
                0x0001d321                get_line
                0x0001d62e                do_tick
                0x0001d65c                sleep_ticks
                0x0001d685                rand
                0x0001d6ac                cmd_help
                0x0001d83a                cmd_kaput
                0x0001d84d                cmd_date
                0x0001daad                cmd_cpuinfo
                0x0001db91                cmd_lspci
                0x0001dcfe                cmd_calc
                0x0001defa                cmd_ascii
                0x0001df6c                cmd_palette
                0x0001dffa                cmd_hex
                0x0001e043                cmd_reverse
                0x0001e09e                cmd_matrix
                0x0001e147                cmd_guess
                0x0001e204                cmd_panic
                0x0001ea59                kb_hit
                0x0001ea95                getch_nb
                0x0001eb74                cmd_snake
                0x0001fbb4                cmd_tetris
                0x0002035e                cmd_tictactoe
                0x000206f3                cmd_memory
                0x0002095a                cmd_hangman
                0x00020da2                cmd_neofetch
                0x00021696                init_users
                0x00021859                do_login
                0x00021ae7                find_form
                0x00021b2b                cmd_mkform
                0x00021cff                cmd_list
                0x00021e48                check_perm
                0x00021f34                cmd_view
                0x00021fa4                cmd_delete
                0x000220bd                cmd_write
                0x000222cd                cmd_append
                0x0002252c                cmd_edit
                0x00022706                cmd_useradd
                0x00022856                cmd_passwd
                0x00022915                cmd_login
                0x00022a34                cmd_logout
                0x00022a42                cmd_setmode
                0x00022bed                cmd_setowner
                0x00022dcb                cmd_banner
                0x00022ecc                cmd_yes
                0x00022f48                cmd_time
                0x000230bb                cmd_fortune
                0x00023185                cmd_shutdown
                0x000231a9                cmd_hist
                0x0002325e                cmd_dimpath
                0x00023294                cmd_makedim
                0x000233bb                cmd_dmesg
                0x0002343d                cmd_cowsay
                0x00023597                cmd_cmatrix
                0x000238cc                cmd_dice
                0x00023abd                cmd_8ball
                0x00023b87                cmd_logo
                0x00023c61                cmd_sl
                0x00023db8                cmd_morse
                0x00023f07                cmd_russian
                0x00023f98                cmd_insult
                0x00024030                cmd_excuse
                0x000240c8                cmd_compliment
                0x00024160                cmd_hack
                0x0002429b                cmd_bsod
                0x00024365                cmd_clock
                0x00024758                cmd_hexdump
                0x0002499f                cmd_uptime_fmt
                0x00024b32                cmd_sysinfo
                0x00025a09                ata_read_sector
                0x00025b2d                ata_write_sector
                0x00025eac                cmd_kstat
                0x00025f25                cmd_netstat
                0x00025f5a                cmd_ifconfig
                0x00025f8f                cmd_netlog
                0x00025fa2                cmd_netrollback
                0x0002601a                cmd_replay_shell
                0x0002610b                cmd_bootlog
                0x00026138                cmd_bootpolicy
                0x00026158                cmd_setfallback
                0x00026187                cmd_caps
                0x000261ff                cmd_grantcap
                0x00026340                cmd_revokecap
                0x00026353                cmd_hexpack
                0x000264b2                cmd_inbox
                0x000265ef                cmd_sendevent
                0x00026747                cmd_pipes_list
                0x000267a7                cmd_timels
                0x0002693b                cmd_timediff
                0x0002694e                cmd_timeat
                0x00026b0f                cmd_pimp
                0x00026e00                cmd_dieselist
                0x00026e35                cmd_mode
                0x00028fdd                shell_entry
                0x00028fec                _user_entry

.iplt           0x0002901a        0x0
 .iplt          0x0002901a        0x0 kernel_entry.o

.rodata         0x00029020     0x4714
 *(.rodata)
 .rodata        0x00029020      0x2d1 interrupts.o
 *fill*         0x000292f1        0x3 
 .rodata        0x000292f4       0x7d paging.o
 .rodata        0x00029371        0xe syscall.o
 .rodata        0x0002937f       0x30 log.o
 *fill*         0x000293af        0x1 
 .rodata        0x000293b0       0x41 pipe.o
 *fill*         0x000293f1        0x3 
 .rodata        0x000293f4      0x112 hexafs_disk.o
 *fill*         0x00029506        0x2 
 .rodata        0x00029508      0x1c9 hexafs.o
 *fill*         0x000296d1        0x3 
 .rodata        0x000296d4      0x40a kobserve.o
 *fill*         0x00029ade        0x2 
 .rodata        0x00029ae0      0x177 boot_policy.o
 .rodata        0x00029c57       0x2f intent.o
 *fill*         0x00029c86        0x2 
 .rodata        0x00029c88       0xc2 replay.o
 *fill*         0x00029d4a        0x2 
 .rodata        0x00029d4c       0xd6 hex.o
 *fill*         0x00029e22        0x2 
 .rodata        0x00029e24       0xba net.o
 *fill*         0x00029ede        0x2 
 .rodata        0x00029ee0       0x71 fb.o
 *fill*         0x00029f51        0xf 
 .rodata        0x00029f60     0x37d4 hexa.o
                0x0002a060                kbd_map
                0x0002a0e0                kbd_map_shift

.eh_frame       0x0002d734     0x3390
 .eh_frame      0x0002d734      0x1f8 interrupts.o
 .eh_frame      0x0002d92c      0x294 paging.o
                                0x2ac (size before relaxing)
 .eh_frame      0x0002dbc0      0x23c process.o
                                0x254 (size before relaxing)
 .eh_frame      0x0002ddfc      0x340 syscall.o
                                0x358 (size before relaxing)
 .eh_frame      0x0002e13c      0x120 sync.o
                                0x138 (size before relaxing)
 .eh_frame      0x0002e25c      0x180 log.o
                                0x198 (size before relaxing)
 .eh_frame      0x0002e3dc       0xc0 driver.o
                                 0xd8 (size before relaxing)
 .eh_frame      0x0002e49c      0x15c pipe.o
                                0x174 (size before relaxing)
 .eh_frame      0x0002e5f8      0x124 vfs.o
                                0x13c (size before relaxing)
 .eh_frame      0x0002e71c       0x40 elf.o
                                 0x58 (size before relaxing)
 .eh_frame      0x0002e75c      0x4d0 hexafs_disk.o
                                0x4e8 (size before relaxing)
 .eh_frame      0x0002ec2c      0x2c8 hexafs.o
                                0x2e0 (size before relaxing)
 .eh_frame      0x0002eef4      0x240 kobserve.o
                                0x258 (size before relaxing)
 .eh_frame      0x0002f134      0x160 boot_policy.o
                                0x178 (size before relaxing)
 .eh_frame      0x0002f294      0x140 intent.o
                                0x158 (size before relaxing)
 .eh_frame      0x0002f3d4      0x100 replay.o
                                0x118 (size before relaxing)
 .eh_frame      0x0002f4d4       0x60 hex.o
                                 0x78 (size before relaxing)
 .eh_frame      0x0002f534      0x1e0 net.o
                                0x1f8 (size before relaxing)
 .eh_frame      0x0002f714      0x180 fb.o
                                0x198 (size before relaxing)
 .eh_frame      0x0002f894     0x1230 hexa.o
                               0x1248 (size before relaxing)

.rel.dyn        0x00030ac4        0x0
 .rel.got       0x00030ac4        0x0 kernel_entry.o
 .rel.iplt      0x00030ac4        0x0 kernel_entry.o
 .rel.text.entry
                0x00030ac4        0x0 kernel_entry.o

.data           0x00030ae0     0x565c
 *(.data)
 .data          0x00030ae0       0x54 interrupts.o
 .data          0x00030b34        0x0 paging.o
 .data          0x00030b34        0x4 process.o
 .data          0x00030b38        0x0 syscall.o
 .data          0x00030b38        0x0 sync.o
 .data          0x00030b38       0x10 log.o
 .data          0x00030b48        0x0 driver.o
 .data          0x00030b48        0x0 pipe.o
 .data          0x00030b48        0x0 vfs.o
 .data          0x00030b48        0x0 elf.o
 .data          0x00030b48        0x4 hexafs_disk.o
 .data          0x00030b4c        0x0 hexafs.o
 .data          0x00030b4c        0x0 kobserve.o
 .data          0x00030b4c        0x0 boot_policy.o
 .data          0x00030b4c        0x4 intent.o
 .data          0x00030b50        0x0 replay.o
 .data          0x00030b50        0x0 hex.o
 .data          0x00030b50        0x0 net.o
 .data          0x00030b50        0x0 fb.o
 *fill*         0x00030b50       0x10 
 .data          0x00030b60     0x55dc hexa.o
                0x0003613c                        _bss_start = .

.got            0x0003613c        0x0
 .got           0x0003613c        0x0 kernel_entry.o

.got.plt        0x0003613c        0x0
 .got.plt       0x0003613c        0x0 kernel_entry.o

.igot.plt       0x0003613c        0x0
 .igot.plt      0x0003613c        0x0 kernel_entry.o

.bss            0x00036140    0x4ab20
 *(.bss)
 .bss           0x00036140      0x996 interrupts.o
                0x00036140                system_ticks
                0x00036160                kbuf
                0x00036260                kbuf_head
                0x00036264                kbuf_tail
 *fill*         0x00036ad6        0xa 
 .bss           0x00036ae0      0x41c paging.o
 *fill*         0x00036efc        0x4 
 .bss           0x00036f00    0x22930 process.o
                0x00036f00                tasks
                0x000597c0                current_task
                0x000597c4                num_tasks
 .bss           0x00059830        0x0 syscall.o
 .bss           0x00059830        0x0 sync.o
 *fill*         0x00059830       0x10 
 .bss           0x00059840     0x1060 log.o
 .bss           0x0005a8a0      0x208 driver.o
                0x0005a8a0                drv_block_devices
                0x0005a9c0                drv_char_devices
 *fill*         0x0005aaa8       0x18 
 .bss           0x0005aac0    0x14f44 pipe.o
 *fill*         0x0006fa04       0x1c 
 .bss           0x0006fa20      0xa00 vfs.o
 .bss           0x00070420        0x0 elf.o
 .bss           0x00070420     0x2894 hexafs_disk.o
                0x00070420                hexafs_mounted
                0x00070440                hexafs_sb
                0x00070640                sb_cache
 *fill*         0x00072cb4        0xc 
 .bss           0x00072cc0      0x668 hexafs.o
                0x00072cc0                hexafs_current_tx
 *fill*         0x00073328       0x18 
 .bss           0x00073340      0x984 kobserve.o
 *fill*         0x00073cc4       0x1c 
 .bss           0x00073ce0      0x17c boot_policy.o
 *fill*         0x00073e5c        0x4 
 .bss           0x00073e60      0xa00 intent.o
 .bss           0x00074860     0x9010 replay.o
 .bss           0x0007d870        0x0 hex.o
 *fill*         0x0007d870       0x10 
 .bss           0x0007d880     0x12cc net.o
 .bss           0x0007eb4c       0x1c fb.o
                0x0007eb4c                fb_info
 *fill*         0x0007eb68       0x18 
 .bss           0x0007eb80     0x20e0 hexa.o
                0x0007eb80                form_table
                0x0007f880                form_count
                0x0007f884                disk_ok
                0x00080c60                        _bss_end = .
                0x00081000                        . = ALIGN (0x1000)
                0x00081000                        _kernel_end = .
LOAD kernel_entry.o
LOAD interrupts.o
LOAD paging.o
LOAD process.o
LOAD syscall.o
LOAD sync.o
LOAD log.o
LOAD driver.o
LOAD pipe.o
LOAD vfs.o
LOAD elf.o
LOAD hexafs_disk.o
LOAD hexafs.o
LOAD kobserve.o
LOAD boot_policy.o
LOAD intent.o
LOAD replay.o
LOAD hex.o
LOAD net.o
LOAD fb.o
LOAD hexa.o
OUTPUT(kernel.elf elf32-i386)

.debug_info     0x00000000     0xf692
 .debug_info    0x00000000      0x90c interrupts.o
 .debug_info    0x0000090c      0x84f paging.o
 .debug_info    0x0000115b      0x9f8 process.o
 .debug_info    0x00001b53      0xde6 syscall.o
 .debug_info    0x00002939      0x1e8 sync.o
 .debug_info    0x00002b21      0x39b log.o
 .debug_info    0x00002ebc      0x2ed driver.o
 .debug_info    0x000031a9      0x69f pipe.o
 .debug_info    0x00003848      0x5f8 vfs.o
 .debug_info    0x00003e40      0x30a elf.o
 .debug_info    0x0000414a     0x1314 hexafs_disk.o
 .debug_info    0x0000545e     0x121d hexafs.o
 .debug_info    0x0000667b     0x110d kobserve.o
 .debug_info    0x00007788      0x4f1 boot_policy.o
 .debug_info    0x00007c79      0xa79 intent.o
 .debug_info    0x000086f2      0x798 replay.o
 .debug_info    0x00008e8a      0x778 hex.o
 .debug_info    0x00009602      0xaa3 net.o
 .debug_info    0x0000a0a5      0x475 fb.o
 .debug_info    0x0000a51a     0x5178 hexa.o

.debug_abbrev   0x00000000     0x2d5a
 .debug_abbrev  0x00000000      0x273 interrupts.o
 .debug_abbrev  0x00000273      0x1f8 paging.o
 .debug_abbrev  0x0000046b      0x2e0 process.o
 .debug_abbrev  0x0000074b      0x293 syscall.o
 .debug_abbrev  0x000009de      0x107 sync.o
 .debug_abbrev  0x00000ae5      0x1b0 log.o
 .debug_abbrev  0x00000c95      0x141 driver.o
 .debug_abbrev  0x00000dd6      0x1c4 pipe.o
 .debug_abbrev  0x00000f9a      0x1c8 vfs.o
 .debug_abbrev  0x00001162      0x12b elf.o
 .debug_abbrev  0x0000128d      0x36e hexafs_disk.o
 .debug_abbrev  0x000015fb      0x2b5 hexafs.o
 .debug_abbrev  0x000018b0      0x2aa kobserve.o
 .debug_abbrev  0x00001b5a      0x21a boot_policy.o
 .debug_abbrev  0x00001d74      0x223 intent.o
 .debug_abbrev  0x00001f97      0x231 replay.o
 .debug_abbrev  0x000021c8      0x1de hex.o
 .debug_abbrev  0x000023a6      0x24a net.o
 .debug_abbrev  0x000025f0      0x224 fb.o
 .debug_abbrev  0x00002814      0x546 hexa.o

.debug_aranges  0x00000000      0x288
 .debug_aranges
                0x00000000       0x20 interrupts.o
 .debug_aranges
                0x00000020       0x20 paging.o
 .debug_aranges
                0x00000040       0x20 process.o
 .debug_aranges
                0x00000060       0x20 syscall.o
 .debug_aranges
                0x00000080       0x20 sync.o
 .debug_aranges
                0x000000a0       0x20 log.o
 .debug_aranges
                0x000000c0       0x20 driver.o
 .debug_aranges
                0x000000e0       0x20 pipe.o
 .debug_aranges
                0x00000100       0x20 vfs.o
 .debug_aranges
                0x00000120       0x20 elf.o
 .debug_aranges
                0x00000140       0x20 hexafs_disk.o
 .debug_aranges
                0x00000160       0x20 hexafs.o
 .debug_aranges
                0x00000180       0x20 kobserve.o
 .debug_aranges
                0x000001a0       0x20 boot_policy.o
 .debug_aranges
                0x000001c0       0x20 intent.o
 .debug_aranges
                0x000001e0       0x20 replay.o
 .debug_aranges
                0x00000200       0x20 hex.o
 .debug_aranges
                0x00000220       0x20 net.o
 .debug_aranges
                0x00000240       0x20 fb.o
 .debug_aranges
                0x00000260       0x28 hexa.o

.debug_rnglists
                0x00000000      0x167
 .debug_rnglists
                0x00000000       0x17 interrupts.o
 .debug_rnglists
                0x00000017       0x17 hexafs_disk.o
 .debug_rnglists
                0x0000002e       0x22 kobserve.o
 .debug_rnglists
                0x00000050       0x17 hex.o
 .debug_rnglists
                0x00000067      0x100 hexa.o

.debug_line     0x00000000     0xd41c
 .debug_line    0x00000000      0x3e8 interrupts.o
 .debug_line    0x000003e8      0x5ea paging.o
 .debug_line    0x000009d2      0x7bd process.o
 .debug_line    0x0000118f      0x53f syscall.o
 .debug_line    0x000016ce      0x108 sync.o
 .debug_line    0x000017d6      0x272 log.o
 .debug_line    0x00001a48       0xf0 driver.o
 .debug_line    0x00001b38      0x480 pipe.o
 .debug_line    0x00001fb8      0x43e vfs.o
 .debug_line    0x000023f6      0x177 elf.o
 .debug_line    0x0000256d      0xba9 hexafs_disk.o
 .debug_line    0x00003116      0xc92 hexafs.o
 .debug_line    0x00003da8      0xeea kobserve.o
 .debug_line    0x00004c92      0x2e8 boot_policy.o
 .debug_line    0x00004f7a      0x63a intent.o
 .debug_line    0x000055b4      0x1f2 replay.o
 .debug_line    0x000057a6      0x362 hex.o
 .debug_line    0x00005b08      0x876 net.o
 .debug_line    0x0000637e      0x307 fb.o
 .debug_line    0x00006685     0x6d97 hexa.o

.debug_str      0x00000000     0x2864
 .debug_str     0x00000000     0x2864 interrupts.o
                                0x3e6 (size before relaxing)
 .debug_str     0x00002864        0x0 paging.o
                                0x30d (size before relaxing)
 .debug_str     0x00002864        0x0 process.o
                                0x3ba (size before relaxing)
 .debug_str     0x00002864        0x0 syscall.o
                                0x5a1 (size before relaxing)
 .debug_str     0x00002864        0x0 sync.o
                                0x141 (size before relaxing)
 .debug_str     0x00002864        0x0 log.o
                                0x186 (size before relaxing)
 .debug_str     0x00002864        0x0 driver.o
                                0x1b3 (size before relaxing)
 .debug_str     0x00002864        0x0 pipe.o
                                0x293 (size before relaxing)
 .debug_str     0x00002864        0x0 vfs.o
                                0x245 (size before relaxing)
 .debug_str     0x00002864        0x0 elf.o
                                0x1c5 (size before relaxing)
 .debug_str     0x00002864        0x0 hexafs_disk.o
                                0x714 (size before relaxing)
 .debug_str     0x00002864        0x0 hexafs.o
                                0x7d9 (size before relaxing)
 .debug_str     0x00002864        0x0 kobserve.o
                                0x543 (size before relaxing)
 .debug_str     0x00002864        0x0 boot_policy.o
                                0x3c5 (size before relaxing)
 .debug_str     0x00002864        0x0 intent.o
                                0x3fb (size before relaxing)
 .debug_str     0x00002864        0x0 replay.o
                                0x4cb (size before relaxing)
 .debug_str     0x00002864        0x0 hex.o
                                0x3a3 (size before relaxing)
 .debug_str     0x00002864        0x0 net.o
                                0x437 (size before relaxing)
 .debug_str     0x00002864        0x0 fb.o
                                0x207 (size before relaxing)
 .debug_str     0x00002864        0x0 hexa.o
                               0x11ce (size before relaxing)

.debug_line_str
                0x00000000      0x167
 .debug_line_str
                0x00000000      0x167 interrupts.o
                                 0x6c (size before relaxing)
 .debug_line_str
                0x00000167        0x0 paging.o
                                 0x53 (size before relaxing)
 .debug_line_str
                0x00000167        0x0 process.o
                                 0x70 (size before relaxing)
 .debug_line_str
                0x00000167        0x0 syscall.o
                                 0x98 (size before relaxing)
 .debug_line_str
                0x00000167        0x0 sync.o
                                 0x4e (size before relaxing)
 .debug_line_str
                0x00000167        0x0 log.o
                                 0x44 (size before relaxing)
 .debug_line_str
                0x00000167        0x0 driver.o
                                 0x56 (size before relaxing)
 .debug_line_str
                0x00000167        0x0 pipe.o
                                 0x5e (size before relaxing)
 .debug_line_str
                0x00000167        0x0 vfs.o
                                 0x5b (size before relaxing)
 .debug_line_str
                0x00000167        0x0 elf.o
                                 0x4a (size before relaxing)
 .debug_line_str
                0x00000167        0x0 hexafs_disk.o
                                 0x79 (size before relaxing)
 .debug_line_str
                0x00000167        0x0 hexafs.o
                                 0x6a (size before relaxing)
 .debug_line_str
                0x00000167        0x0 kobserve.o
                                 0x9b (size before relaxing)
 .debug_line_str
                0x00000167        0x0 boot_policy.o
                                 0x79 (size before relaxing)
 .debug_line_str
                0x00000167        0x0 intent.o
                                 0x75 (size before relaxing)
 .debug_line_str
                0x00000167        0x0 replay.o
                                 0x8a (size before relaxing)
 .debug_line_str
                0x00000167        0x0 hex.o
                                 0x63 (size before relaxing)
 .debug_line_str
                0x00000167        0x0 net.o
                                 0x65 (size before relaxing)
 .debug_line_str
                0x00000167        0x0 fb.o
                                 0x56 (size before relaxing)
 .debug_line_str
                0x00000167        0x0 hexa.o
                                 0xd4 (size before relaxing)

.comment        0x00000000       0x1b
 .comment       0x00000000       0x1b interrupts.o
                                 0x1c (size before relaxing)
 .comment       0x0000001b        0x0 paging.o
                                 0x1c (size before relaxing)
 .comment       0x0000001b        0x0 process.o
                                 0x1c (size before relaxing)
 .comment       0x0000001b        0x0 syscall.o
                                 0x1c (size before relaxing)
 .comment       0x0000001b        0x0 sync.o
                                 0x1c (size before relaxing)
 .comment       0x0000001b        0x0 log.o
                                 0x1c (size before relaxing)
 .comment       0x0000001b        0x0 driver.o
                                 0x1c (size before relaxing)
 .comment       0x0000001b        0x0 pipe.o
                                 0x1c (size before relaxing)
 .comment       0x0000001b        0x0 vfs.o
                                 0x1c (size before relaxing)
 .comment       0x0000001b        0x0 elf.o
                                 0x1c (size before relaxing)
 .comment       0x0000001b        0x0 hexafs_disk.o
                                 0x1c (size before relaxing)
 .comment       0x0000001b        0x0 hexafs.o
                                 0x1c (size before relaxing)
 .comment       0x0000001b        0x0 kobserve.o
                                 0x1c (size before relaxing)
 .comment       0x0000001b        0x0 boot_policy.o
                                 0x1c (size before relaxing)
 .comment       0x0000001b        0x0 intent.o
                                 0x1c (size before relaxing)
 .comment       0x0000001b        0x0 replay.o
                                 0x1c (size before relaxing)
 .comment       0x0000001b        0x0 hex.o
                                 0x1c (size before relaxing)
 .comment       0x0000001b        0x0 net.o
                                 0x1c (size before relaxing)
 .comment       0x0000001b        0x0 fb.o
                                 0x1c (size before relaxing)
 .comment       0x0000001b        0x0 hexa.o
                                 0x1c (size before relaxing)

.note.GNU-stack
                0x00000000        0x0
 .note.GNU-stack
                0x00000000        0x0 interrupts.o
 .note.GNU-stack
                0x00000000        0x0 paging.o
 .note.GNU-stack
                0x00000000        0x0 process.o
 .note.GNU-stack
                0x00000000        0x0 syscall.o
 .note.GNU-stack
                0x00000000        0x0 sync.o
 .note.GNU-stack
                0x00000000        0x0 log.o
 .note.GNU-stack
                0x00000000        0x0 driver.o
 .note.GNU-stack
                0x00000000        0x0 pipe.o
 .note.GNU-stack
                0x00000000        0x0 vfs.o
 .note.GNU-stack
                0x00000000        0x0 elf.o
 .note.GNU-stack
                0x00000000        0x0 hexafs_disk.o
 .note.GNU-stack
                0x00000000        0x0 hexafs.o
 .note.GNU-stack
                0x00000000        0x0 kobserve.o
 .note.GNU-stack
                0x00000000        0x0 boot_policy.o
 .note.GNU-stack
                0x00000000        0x0 intent.o
 .note.GNU-stack
                0x00000000        0x0 replay.o
 .note.GNU-stack
                0x00000000        0x0 hex.o
 .note.GNU-stack
                0x00000000        0x0 net.o
 .note.GNU-stack
                0x00000000        0x0 fb.o
 .note.GNU-stack
                0x00000000        0x0 hexa.o
